target datalayout = "e-m:e-p270:32:32-p271:32:32-p272:64:64-i64:64-i128:128-f80:128-n8:16:32:64-S128"
target triple = "x86_64-pc-linux-gnu"

%struct.png_struct_def = type { [1 x %struct.__jmp_buf_tag], ptr, ptr, i64, ptr, ptr, ptr, ptr, ptr, ptr, ptr, ptr, ptr, i8, i8, i32, i32, i32, i32, %struct.z_stream_s, ptr, i32, i32, i32, i32, i32, i32, i32, i32, i32, i32, i32, i32, i32, i32, i32, i32, i32, i32, i32, i32, i32, i64, i32, i32, i32, ptr, ptr, ptr, ptr, i64, i32, i32, ptr, i16, i32, i16, i8, i8, i8, i8, i8, i8, i8, i8, i8, i8, i8, i8, i8, i8, i8, i16, i8, i32, %struct.png_color_16_struct, %struct.png_color_16_struct, ptr, i32, i32, %struct.png_xy, i32, i32, i32, i32, i32, ptr, ptr, ptr, ptr, ptr, ptr, %struct.png_color_8_struct, %struct.png_color_8_struct, ptr, %struct.png_color_16_struct, ptr, ptr, ptr, ptr, ptr, ptr, ptr, ptr, ptr, i32, i32, i64, i64, i64, i64, i32, i32, ptr, ptr, i32, [29 x i8], i32, ptr, ptr, i32, i32, ptr, i8, i8, i16, i16, ptr, i32, i8, ptr, ptr, ptr, ptr, ptr, ptr, ptr, i8, i32, i32, i32, i64, %struct.png_unknown_chunk_t, i64, ptr, i64, i32, i32, ptr, [4 x ptr] }
%struct.__jmp_buf_tag = type { [8 x i64], i32, %struct.__sigset_t }
%struct.__sigset_t = type { [16 x i64] }
%struct.z_stream_s = type { ptr, i32, i64, ptr, i32, i64, ptr, ptr, ptr, ptr, ptr, i32, i64, i64 }
%struct.png_xy = type { i32, i32, i32, i32, i32, i32, i32, i32 }
%struct.png_color_8_struct = type { i8, i8, i8, i8, i8 }
%struct.png_color_16_struct = type { i8, i16, i16, i16, i16 }
%struct.png_unknown_chunk_t = type { [5 x i8], ptr, i64, i8 }

@.str.7 = private unnamed_addr constant [36 x i8] c"invalid error action to rgb_to_gray\00", align 1
@.str.8 = private unnamed_addr constant [47 x i8] c"ignoring out of range rgb_to_gray coefficients\00", align 1
@.str.18 = private unnamed_addr constant [59 x i8] c"invalid after png_start_read_image or png_read_update_info\00", align 1
@.str.19 = private unnamed_addr constant [44 x i8] c"invalid before the PNG header has been read\00", align 1

; Function Attrs: nounwind uwtable
define internal i32 @png_rtran_ok(ptr noalias noundef %0, i32 noundef %1) #0 {
  %3 = alloca i32, align 4
  %4 = alloca ptr, align 8
  %5 = alloca i32, align 4
  store ptr %0, ptr %4, align 8, !tbaa !3
  store i32 %1, ptr %5, align 4, !tbaa !8
  %6 = load ptr, ptr %4, align 8, !tbaa !3
  %7 = icmp ne ptr %6, null
  br i1 %7, label %8, label %34

8:                                                ; preds = %2
  %9 = load ptr, ptr %4, align 8, !tbaa !3
  %10 = getelementptr inbounds nuw %struct.png_struct_def, ptr %9, i32 0, i32 16
  %11 = load i32, ptr %10, align 8, !tbaa !10
  %12 = and i32 %11, 64
  %13 = icmp ne i32 %12, 0
  br i1 %13, label %14, label %16

14:                                               ; preds = %8
  %15 = load ptr, ptr %4, align 8, !tbaa !3
  call void @png_app_error(ptr noundef %15, ptr noundef @.str.18)
  br label %33

16:                                               ; preds = %8
  %17 = load i32, ptr %5, align 4, !tbaa !8
  %18 = icmp ne i32 %17, 0
  br i1 %18, label %19, label %27

19:                                               ; preds = %16
  %20 = load ptr, ptr %4, align 8, !tbaa !3
  %21 = getelementptr inbounds nuw %struct.png_struct_def, ptr %20, i32 0, i32 15
  %22 = load i32, ptr %21, align 4, !tbaa !33
  %23 = and i32 %22, 1
  %24 = icmp eq i32 %23, 0
  br i1 %24, label %25, label %27

25:                                               ; preds = %19
  %26 = load ptr, ptr %4, align 8, !tbaa !3
  call void @png_app_error(ptr noundef %26, ptr noundef @.str.19)
  br label %32

27:                                               ; preds = %19, %16
  %28 = load ptr, ptr %4, align 8, !tbaa !3
  %29 = getelementptr inbounds nuw %struct.png_struct_def, ptr %28, i32 0, i32 16
  %30 = load i32, ptr %29, align 8, !tbaa !10
  %31 = or i32 %30, 16384
  store i32 %31, ptr %29, align 8, !tbaa !10
  store i32 1, ptr %3, align 4
  br label %35

32:                                               ; preds = %25
  br label %33

33:                                               ; preds = %32, %14
  br label %34

34:                                               ; preds = %33, %2
  store i32 0, ptr %3, align 4
  br label %35

35:                                               ; preds = %34, %27
  %36 = load i32, ptr %3, align 4
  ret i32 %36
}

; Function Attrs: nounwind uwtable
define void @png_set_rgb_to_gray_fixed(ptr noalias noundef %0, i32 noundef %1, i32 noundef %2, i32 noundef %3) #0 {
  %5 = alloca ptr, align 8
  %6 = alloca i32, align 4
  %7 = alloca i32, align 4
  %8 = alloca i32, align 4
  %9 = alloca i16, align 2
  %10 = alloca i16, align 2
  store ptr %0, ptr %5, align 8, !tbaa !3
  store i32 %1, ptr %6, align 4, !tbaa !8
  store i32 %2, ptr %7, align 4, !tbaa !8
  store i32 %3, ptr %8, align 4, !tbaa !8
  %11 = load ptr, ptr %5, align 8, !tbaa !3
  %12 = call i32 @png_rtran_ok(ptr noundef %11, i32 noundef 1)
  %13 = icmp eq i32 %12, 0
  br i1 %13, label %14, label %15

14:                                               ; preds = %4
  br label %82

15:                                               ; preds = %4
  %16 = load i32, ptr %6, align 4, !tbaa !8
  switch i32 %16, label %32 [
    i32 1, label %17
    i32 2, label %22
    i32 3, label %27
  ]

17:                                               ; preds = %15
  %18 = load ptr, ptr %5, align 8, !tbaa !3
  %19 = getelementptr inbounds nuw %struct.png_struct_def, ptr %18, i32 0, i32 17
  %20 = load i32, ptr %19, align 4, !tbaa !27
  %21 = or i32 %20, 6291456
  store i32 %21, ptr %19, align 4, !tbaa !27
  br label %34

22:                                               ; preds = %15
  %23 = load ptr, ptr %5, align 8, !tbaa !3
  %24 = getelementptr inbounds nuw %struct.png_struct_def, ptr %23, i32 0, i32 17
  %25 = load i32, ptr %24, align 4, !tbaa !27
  %26 = or i32 %25, 4194304
  store i32 %26, ptr %24, align 4, !tbaa !27
  br label %34

27:                                               ; preds = %15
  %28 = load ptr, ptr %5, align 8, !tbaa !3
  %29 = getelementptr inbounds nuw %struct.png_struct_def, ptr %28, i32 0, i32 17
  %30 = load i32, ptr %29, align 4, !tbaa !27
  %31 = or i32 %30, 2097152
  store i32 %31, ptr %29, align 4, !tbaa !27
  br label %34

32:                                               ; preds = %15
  %33 = load ptr, ptr %5, align 8, !tbaa !3
  call void @png_error(ptr noundef %33, ptr noundef @.str.7) #8
  unreachable

34:                                               ; preds = %27, %22, %17
  %35 = load ptr, ptr %5, align 8, !tbaa !3
  %36 = getelementptr inbounds nuw %struct.png_struct_def, ptr %35, i32 0, i32 62
  %37 = load i8, ptr %36, align 1, !tbaa !88
  %38 = zext i8 %37 to i32
  %39 = icmp eq i32 %38, 3
  br i1 %39, label %40, label %45

40:                                               ; preds = %34
  %41 = load ptr, ptr %5, align 8, !tbaa !3
  %42 = getelementptr inbounds nuw %struct.png_struct_def, ptr %41, i32 0, i32 17
  %43 = load i32, ptr %42, align 4, !tbaa !27
  %44 = or i32 %43, 4096
  store i32 %44, ptr %42, align 4, !tbaa !27
  br label %45

45:                                               ; preds = %40, %34
  %46 = load i32, ptr %7, align 4, !tbaa !8
  %47 = icmp sge i32 %46, 0
  br i1 %47, label %48, label %73

48:                                               ; preds = %45
  %49 = load i32, ptr %8, align 4, !tbaa !8
  %50 = icmp sge i32 %49, 0
  br i1 %50, label %51, label %73

51:                                               ; preds = %48
  %52 = load i32, ptr %7, align 4, !tbaa !8
  %53 = load i32, ptr %8, align 4, !tbaa !8
  %54 = add nsw i32 %52, %53
  %55 = icmp sle i32 %54, 100000
  br i1 %55, label %56, label %73

56:                                               ; preds = %51
  call void @llvm.lifetime.start.p0(i64 2, ptr %9) #7
  call void @llvm.lifetime.start.p0(i64 2, ptr %10) #7
  %57 = load i32, ptr %7, align 4, !tbaa !8
  %58 = mul i32 %57, 32768
  %59 = udiv i32 %58, 100000
  %60 = trunc i32 %59 to i16
  store i16 %60, ptr %9, align 2, !tbaa !30
  %61 = load i32, ptr %8, align 4, !tbaa !8
  %62 = mul i32 %61, 32768
  %63 = udiv i32 %62, 100000
  %64 = trunc i32 %63 to i16
  store i16 %64, ptr %10, align 2, !tbaa !30
  %65 = load i16, ptr %9, align 2, !tbaa !30
  %66 = load ptr, ptr %5, align 8, !tbaa !3
  %67 = getelementptr inbounds nuw %struct.png_struct_def, ptr %66, i32 0, i32 125
  store i16 %65, ptr %67, align 2, !tbaa !89
  %68 = load i16, ptr %10, align 2, !tbaa !30
  %69 = load ptr, ptr %5, align 8, !tbaa !3
  %70 = getelementptr inbounds nuw %struct.png_struct_def, ptr %69, i32 0, i32 126
  store i16 %68, ptr %70, align 4, !tbaa !90
  %71 = load ptr, ptr %5, align 8, !tbaa !3
  %72 = getelementptr inbounds nuw %struct.png_struct_def, ptr %71, i32 0, i32 124
  store i8 1, ptr %72, align 1, !tbaa !91
  call void @llvm.lifetime.end.p0(i64 2, ptr %10) #7
  call void @llvm.lifetime.end.p0(i64 2, ptr %9) #7
  br label %82

73:                                               ; preds = %51, %48, %45
  %74 = load i32, ptr %7, align 4, !tbaa !8
  %75 = icmp sge i32 %74, 0
  br i1 %75, label %76, label %81

76:                                               ; preds = %73
  %77 = load i32, ptr %8, align 4, !tbaa !8
  %78 = icmp sge i32 %77, 0
  br i1 %78, label %79, label %81

79:                                               ; preds = %76
  %80 = load ptr, ptr %5, align 8, !tbaa !3
  call void @png_app_warning(ptr noundef %80, ptr noundef @.str.8)
  br label %81

81:                                               ; preds = %79, %76, %73
  br label %82

82:                                               ; preds = %14, %81, %56
  ret void
}