; Function Attrs: nounwind uwtable
define void @png_set_rgb_to_gray_fixed(ptr noalias noundef %0, i32 noundef %1, i32 noundef %2, i32 noundef %3) local_unnamed_addr #0 {
  %.not.i = icmp eq ptr %0, null
  br i1 %.not.i, label %png_rtran_ok.exit.thread, label %5

5:                                                ; preds = %4
  %6 = getelementptr inbounds nuw i8, ptr %0, i64 304
  %7 = load i32, ptr %6, align 8, !tbaa !3, !alias.scope !122
  %8 = and i32 %7, 64
  %.not8.i = icmp eq i32 %8, 0
  br i1 %.not8.i, label %10, label %9

9:                                                ; preds = %5
  tail call void @png_app_error(ptr noundef nonnull %0, ptr noundef nonnull @.str.18) #11
  br label %png_rtran_ok.exit.thread

10:                                               ; preds = %5
  %11 = getelementptr inbounds nuw i8, ptr %0, i64 300
  %12 = load i32, ptr %11, align 4, !tbaa !125, !alias.scope !122
  %13 = and i32 %12, 1
  %14 = icmp eq i32 %13, 0
  br i1 %14, label %15, label %16

15:                                               ; preds = %10
  tail call void @png_app_error(ptr noundef nonnull %0, ptr noundef nonnull @.str.19) #11
  br label %png_rtran_ok.exit.thread

16:                                               ; preds = %10
  %17 = or i32 %7, 16384
  store i32 %17, ptr %6, align 8, !tbaa !3, !alias.scope !122
  %switch.tableidx = add i32 %1, -1
  %18 = icmp ult i32 %switch.tableidx, 3
  br i1 %18, label %switch.lookup, label %19

19:                                               ; preds = %16
  tail call void @png_error(ptr noundef nonnull %0, ptr noundef nonnull @.str.7) #12
  unreachable

switch.lookup:                                    ; preds = %16
  %20 = shl nuw nsw i32 %switch.tableidx, 21
  %switch.offset = sub nuw nsw i32 6291456, %20
  %21 = getelementptr inbounds nuw i8, ptr %0, i64 308
  %22 = load i32, ptr %21, align 4, !tbaa !25
  %23 = or i32 %22, %switch.offset
  store i32 %23, ptr %21, align 4, !tbaa !25
  %24 = getelementptr inbounds nuw i8, ptr %0, i64 623
  %25 = load i8, ptr %24, align 1, !tbaa !126
  %26 = icmp eq i8 %25, 3
  br i1 %26, label %27, label %30

27:                                               ; preds = %switch.lookup
  %28 = getelementptr inbounds nuw i8, ptr %0, i64 308
  %29 = or i32 %23, 4096
  store i32 %29, ptr %28, align 4, !tbaa !25
  br label %30

30:                                               ; preds = %27, %switch.lookup
  %31 = or i32 %3, %2
  %or.cond = icmp sgt i32 %31, -1
  %32 = add nuw nsw i32 %3, %2
  %33 = icmp slt i32 %32, 100001
  %or.cond26 = select i1 %or.cond, i1 %33, i1 false
  br i1 %or.cond26, label %34, label %44

34:                                               ; preds = %30
  %35 = shl i32 %2, 15
  %36 = udiv i32 %35, 100000
  %37 = trunc nuw i32 %36 to i16
  %38 = shl i32 %3, 15
  %39 = udiv i32 %38, 100000
  %40 = trunc nuw i32 %39 to i16
  %41 = getelementptr inbounds nuw i8, ptr %0, i64 1034
  store i16 %37, ptr %41, align 2, !tbaa !127
  %42 = getelementptr inbounds nuw i8, ptr %0, i64 1036
  store i16 %40, ptr %42, align 4, !tbaa !128
  %43 = getelementptr inbounds nuw i8, ptr %0, i64 1033
  store i8 1, ptr %43, align 1, !tbaa !129
  br label %png_rtran_ok.exit.thread

44:                                               ; preds = %30
  br i1 %or.cond, label %45, label %png_rtran_ok.exit.thread

45:                                               ; preds = %44
  tail call void @png_app_warning(ptr noundef nonnull %0, ptr noundef nonnull @.str.8) #11
  br label %png_rtran_ok.exit.thread

png_rtran_ok.exit.thread:                         ; preds = %4, %15, %9, %44, %45, %34
  ret void
}